target datalayout = "e-m:e-p270:32:32-p271:32:32-p272:64:64-i64:64-i128:128-f80:128-n8:16:32:64-S128"
target triple = "x86_64-pc-linux-gnu"

@.str.6 = private unnamed_addr constant [5 x i8] c"IDAT\00", align 1
@.str.12 = private unnamed_addr constant [5 x i8] c"fdAT\00", align 1

; Function Attrs: mustprogress uwtable
define hidden void @_ZN2cv10PngEncoder10writeIDATsEP8_IO_FILEiPhjj(ptr noundef nonnull align 8 dereferenceable(8960) %0, ptr noundef %1, i32 noundef %2, ptr noundef %3, i32 noundef %4, i32 noundef %5) #5 align 2 {
  %7 = alloca ptr, align 8
  %8 = alloca ptr, align 8
  %9 = alloca i32, align 4
  %10 = alloca ptr, align 8
  %11 = alloca i32, align 4
  %12 = alloca i32, align 4
  %13 = alloca i32, align 4
  %14 = alloca i32, align 4
  %15 = alloca i32, align 4
  %16 = alloca i32, align 4
  store ptr %0, ptr %7, align 8, !tbaa !209
  store ptr %1, ptr %8, align 8, !tbaa !233
  store i32 %2, ptr %9, align 4, !tbaa !31
  store ptr %3, ptr %10, align 8, !tbaa !42
  store i32 %4, ptr %11, align 4, !tbaa !31
  store i32 %5, ptr %12, align 4, !tbaa !31
  %17 = load ptr, ptr %7, align 8
  call void @llvm.lifetime.start.p0(i64 4, ptr %13) #3
  %18 = load ptr, ptr %10, align 8, !tbaa !42
  %19 = getelementptr inbounds i8, ptr %18, i64 0
  %20 = load i8, ptr %19, align 1, !tbaa !48
  %21 = zext i8 %20 to i32
  store i32 %21, ptr %13, align 4, !tbaa !31
  %22 = load i32, ptr %13, align 4, !tbaa !31
  %23 = and i32 %22, 15
  %24 = icmp eq i32 %23, 8
  br i1 %24, label %25, label %96

25:                                               ; preds = %6
  %26 = load i32, ptr %13, align 4, !tbaa !31
  %27 = and i32 %26, 240
  %28 = icmp ule i32 %27, 112
  br i1 %28, label %29, label %96

29:                                               ; preds = %25
  %30 = load i32, ptr %11, align 4, !tbaa !31
  %31 = icmp uge i32 %30, 2
  br i1 %31, label %32, label %95

32:                                               ; preds = %29
  call void @llvm.lifetime.start.p0(i64 4, ptr %14) #3
  %33 = load i32, ptr %13, align 4, !tbaa !31
  %34 = lshr i32 %33, 4
  store i32 %34, ptr %14, align 4, !tbaa !31
  call void @llvm.lifetime.start.p0(i64 4, ptr %15) #3
  %35 = load i32, ptr %14, align 4, !tbaa !31
  %36 = add i32 %35, 7
  %37 = shl i32 1, %36
  store i32 %37, ptr %15, align 4, !tbaa !31
  br label %38

38:                                               ; preds = %47, %32
  %39 = load i32, ptr %12, align 4, !tbaa !31
  %40 = load i32, ptr %15, align 4, !tbaa !31
  %41 = icmp ule i32 %39, %40
  br i1 %41, label %42, label %45

42:                                               ; preds = %38
  %43 = load i32, ptr %15, align 4, !tbaa !31
  %44 = icmp uge i32 %43, 256
  br label %45

45:                                               ; preds = %42, %38
  %46 = phi i1 [ false, %38 ], [ %44, %42 ]
  br i1 %46, label %47, label %52

47:                                               ; preds = %45
  %48 = load i32, ptr %14, align 4, !tbaa !31
  %49 = add i32 %48, -1
  store i32 %49, ptr %14, align 4, !tbaa !31
  %50 = load i32, ptr %15, align 4, !tbaa !31
  %51 = lshr i32 %50, 1
  store i32 %51, ptr %15, align 4, !tbaa !31
  br label %38, !llvm.loop !238

52:                                               ; preds = %45
  %53 = load i32, ptr %13, align 4, !tbaa !31
  %54 = and i32 %53, 15
  %55 = load i32, ptr %14, align 4, !tbaa !31
  %56 = shl i32 %55, 4
  %57 = or i32 %54, %56
  store i32 %57, ptr %13, align 4, !tbaa !31
  %58 = load ptr, ptr %10, align 8, !tbaa !42
  %59 = getelementptr inbounds i8, ptr %58, i64 0
  %60 = load i8, ptr %59, align 1, !tbaa !48
  %61 = zext i8 %60 to i32
  %62 = load i32, ptr %13, align 4, !tbaa !31
  %63 = trunc i32 %62 to i8
  %64 = zext i8 %63 to i32
  %65 = icmp ne i32 %61, %64
  br i1 %65, label %66, label %94

66:                                               ; preds = %52
  %67 = load i32, ptr %13, align 4, !tbaa !31
  %68 = trunc i32 %67 to i8
  %69 = load ptr, ptr %10, align 8, !tbaa !42
  %70 = getelementptr inbounds i8, ptr %69, i64 0
  store i8 %68, ptr %70, align 1, !tbaa !48
  %71 = load ptr, ptr %10, align 8, !tbaa !42
  %72 = getelementptr inbounds i8, ptr %71, i64 1
  %73 = load i8, ptr %72, align 1, !tbaa !48
  %74 = zext i8 %73 to i32
  %75 = and i32 %74, 224
  %76 = trunc i32 %75 to i8
  store i8 %76, ptr %72, align 1, !tbaa !48
  %77 = load i32, ptr %13, align 4, !tbaa !31
  %78 = shl i32 %77, 8
  %79 = load ptr, ptr %10, align 8, !tbaa !42
  %80 = getelementptr inbounds i8, ptr %79, i64 1
  %81 = load i8, ptr %80, align 1, !tbaa !48
  %82 = zext i8 %81 to i32
  %83 = add i32 %78, %82
  %84 = urem i32 %83, 31
  %85 = sub i32 31, %84
  %86 = trunc i32 %85 to i8
  %87 = zext i8 %86 to i32
  %88 = load ptr, ptr %10, align 8, !tbaa !42
  %89 = getelementptr inbounds i8, ptr %88, i64 1
  %90 = load i8, ptr %89, align 1, !tbaa !48
  %91 = zext i8 %90 to i32
  %92 = add nsw i32 %91, %87
  %93 = trunc i32 %92 to i8
  store i8 %93, ptr %89, align 1, !tbaa !48
  br label %94

94:                                               ; preds = %66, %52
  call void @llvm.lifetime.end.p0(i64 4, ptr %15) #3
  call void @llvm.lifetime.end.p0(i64 4, ptr %14) #3
  br label %95

95:                                               ; preds = %94, %29
  br label %96

96:                                               ; preds = %95, %25, %6
  br label %97

97:                                               ; preds = %117, %96
  %98 = load i32, ptr %11, align 4, !tbaa !31
  %99 = icmp ugt i32 %98, 0
  br i1 %99, label %100, label %125

100:                                              ; preds = %97
  call void @llvm.lifetime.start.p0(i64 4, ptr %16) #3
  %101 = load i32, ptr %11, align 4, !tbaa !31
  store i32 %101, ptr %16, align 4, !tbaa !31
  %102 = load i32, ptr %16, align 4, !tbaa !31
  %103 = icmp ugt i32 %102, 32768
  br i1 %103, label %104, label %105

104:                                              ; preds = %100
  store i32 32768, ptr %16, align 4, !tbaa !31
  br label %105

105:                                              ; preds = %104, %100
  %106 = load i32, ptr %9, align 4, !tbaa !31
  %107 = icmp eq i32 %106, 0
  br i1 %107, label %108, label %112

108:                                              ; preds = %105
  %109 = load ptr, ptr %8, align 8, !tbaa !233
  %110 = load ptr, ptr %10, align 8, !tbaa !42
  %111 = load i32, ptr %16, align 4, !tbaa !31
  call void @_ZN2cv10PngEncoder10writeChunkEP8_IO_FILEPKcPhj(ptr noundef nonnull align 8 dereferenceable(8960) %17, ptr noundef %109, ptr noundef @.str.6, ptr noundef %110, i32 noundef %111)
  br label %117

112:                                              ; preds = %105
  %113 = load ptr, ptr %8, align 8, !tbaa !233
  %114 = load ptr, ptr %10, align 8, !tbaa !42
  %115 = load i32, ptr %16, align 4, !tbaa !31
  %116 = add i32 %115, 4
  call void @_ZN2cv10PngEncoder10writeChunkEP8_IO_FILEPKcPhj(ptr noundef nonnull align 8 dereferenceable(8960) %17, ptr noundef %113, ptr noundef @.str.12, ptr noundef %114, i32 noundef %116)
  br label %117

117:                                              ; preds = %112, %108
  %118 = load i32, ptr %16, align 4, !tbaa !31
  %119 = load ptr, ptr %10, align 8, !tbaa !42
  %120 = zext i32 %118 to i64
  %121 = getelementptr inbounds nuw i8, ptr %119, i64 %120
  store ptr %121, ptr %10, align 8, !tbaa !42
  %122 = load i32, ptr %16, align 4, !tbaa !31
  %123 = load i32, ptr %11, align 4, !tbaa !31
  %124 = sub i32 %123, %122
  store i32 %124, ptr %11, align 4, !tbaa !31
  call void @llvm.lifetime.end.p0(i64 4, ptr %16) #3
  br label %97, !llvm.loop !239

125:                                              ; preds = %97
  call void @llvm.lifetime.end.p0(i64 4, ptr %13) #3
  ret void
}