; Function Attrs: mustprogress uwtable
define hidden void @_ZN2cv10PngEncoder10writeIDATsEP8_IO_FILEiPhjj(ptr noundef nonnull align 8 captures(none) dereferenceable(8960) %0, ptr noundef %1, i32 noundef %2, ptr noundef %3, i32 noundef %4, i32 noundef %5) local_unnamed_addr #5 align 2 {
  %7 = load i8, ptr %3, align 1, !tbaa !121
  %8 = zext i8 %7 to i32
  %9 = and i32 %8, 15
  %10 = icmp eq i32 %9, 8
  br i1 %10, label %11, label %41

11:                                               ; preds = %6
  %12 = and i32 %8, 240
  %13 = icmp samesign ult i32 %12, 113
  %14 = icmp ugt i32 %4, 1
  %or.cond = and i1 %14, %13
  br i1 %or.cond, label %15, label %41

15:                                               ; preds = %11
  %16 = lshr i32 %8, 4
  %17 = shl nuw nsw i32 128, %16
  %18 = icmp ule i32 %5, %17
  %19 = icmp ugt i8 %7, 15
  %20 = and i1 %18, %19
  br i1 %20, label %.lr.ph, label %._crit_edge

.lr.ph:                                           ; preds = %15, %.lr.ph
  %.042 = phi i32 [ %22, %.lr.ph ], [ %17, %15 ]
  %.03641 = phi i32 [ %21, %.lr.ph ], [ %16, %15 ]
  %21 = add nsw i32 %.03641, -1
  %22 = lshr i32 %.042, 1
  %23 = icmp samesign ule i32 %5, %22
  %24 = icmp samesign ugt i32 %.042, 511
  %25 = select i1 %23, i1 %24, i1 false
  br i1 %25, label %.lr.ph, label %._crit_edge, !llvm.loop !234

._crit_edge:                                      ; preds = %.lr.ph, %15
  %.036.lcssa = phi i32 [ %16, %15 ], [ %21, %.lr.ph ]
  %26 = shl i32 %.036.lcssa, 4
  %27 = or disjoint i32 %26, 8
  %28 = and i32 %27, 248
  %.not = icmp eq i32 %28, %8
  br i1 %.not, label %.lr.ph47, label %29

29:                                               ; preds = %._crit_edge
  %30 = trunc i32 %27 to i8
  store i8 %30, ptr %3, align 1, !tbaa !121
  %31 = getelementptr inbounds nuw i8, ptr %3, i64 1
  %32 = load i8, ptr %31, align 1, !tbaa !121
  %33 = and i8 %32, -32
  %34 = shl i32 %27, 8
  %35 = zext i8 %33 to i32
  %36 = or disjoint i32 %34, %35
  %37 = urem i32 %36, 31
  %38 = trunc nuw nsw i32 %37 to i8
  %39 = or disjoint i8 %33, %38
  %40 = xor i8 %39, 31
  store i8 %40, ptr %31, align 1, !tbaa !121
  br label %.lr.ph47

41:                                               ; preds = %11, %6
  %.not4043 = icmp eq i32 %4, 0
  br i1 %.not4043, label %._crit_edge48, label %.lr.ph47

.lr.ph47:                                         ; preds = %29, %._crit_edge, %41
  %42 = icmp eq i32 %2, 0
  br i1 %42, label %.lr.ph47.split.us, label %.lr.ph47.split

.lr.ph47.split.us:                                ; preds = %.lr.ph47, %.lr.ph47.split.us
  %.03745.us = phi ptr [ %44, %.lr.ph47.split.us ], [ %3, %.lr.ph47 ]
  %.03844.us = phi i32 [ %45, %.lr.ph47.split.us ], [ %4, %.lr.ph47 ]
  %spec.store.select.us = tail call i32 @llvm.umin.i32(i32 %.03844.us, i32 32768)
  tail call void @_ZN2cv10PngEncoder10writeChunkEP8_IO_FILEPKcPhj(ptr noundef nonnull align 8 dereferenceable(8960) %0, ptr noundef %1, ptr noundef nonnull @.str.6, ptr noundef %.03745.us, i32 noundef %spec.store.select.us)
  %43 = zext nneg i32 %spec.store.select.us to i64
  %44 = getelementptr inbounds nuw i8, ptr %.03745.us, i64 %43
  %45 = sub i32 %.03844.us, %spec.store.select.us
  %.not40.us = icmp eq i32 %45, 0
  br i1 %.not40.us, label %._crit_edge48, label %.lr.ph47.split.us, !llvm.loop !235

.lr.ph47.split:                                   ; preds = %.lr.ph47, %.lr.ph47.split
  %.03745 = phi ptr [ %48, %.lr.ph47.split ], [ %3, %.lr.ph47 ]
  %.03844 = phi i32 [ %49, %.lr.ph47.split ], [ %4, %.lr.ph47 ]
  %spec.store.select = tail call i32 @llvm.umin.i32(i32 %.03844, i32 32768)
  %46 = add nuw nsw i32 %spec.store.select, 4
  tail call void @_ZN2cv10PngEncoder10writeChunkEP8_IO_FILEPKcPhj(ptr noundef nonnull align 8 dereferenceable(8960) %0, ptr noundef %1, ptr noundef nonnull @.str.12, ptr noundef %.03745, i32 noundef %46)
  %47 = zext nneg i32 %spec.store.select to i64
  %48 = getelementptr inbounds nuw i8, ptr %.03745, i64 %47
  %49 = sub i32 %.03844, %spec.store.select
  %.not40 = icmp eq i32 %49, 0
  br i1 %.not40, label %._crit_edge48, label %.lr.ph47.split, !llvm.loop !235

._crit_edge48:                                    ; preds = %.lr.ph47.split, %.lr.ph47.split.us, %41
  ret void
}